target datalayout = "e-m:e-p270:32:32-p271:32:32-p272:64:64-i64:64-i128:128-f80:128-n8:16:32:64-S128"
target triple = "x86_64-pc-linux-gnu"

%struct.SegmentListEntry = type { i32, double, double, i64, i64, ptr, ptr, i64 }

@.str.104 = private unnamed_addr constant [4 x i8] c"%s\0A\00", align 1
@.str.105 = private unnamed_addr constant [8 x i8] c",%f,%f\0A\00", align 1
@.str.106 = private unnamed_addr constant [16 x i8] c"#EXTINF:%f,\0A%s\0A\00", align 1
@.str.107 = private unnamed_addr constant [44 x i8] c"Error writing list entry '%s' in list file\0A\00", align 1
@.str.108 = private unnamed_addr constant [9 x i8] c"file %s\0A\00", align 1
@.str.109 = private unnamed_addr constant [30 x i8] c"Assertion %s failed at %s:%d\0A\00", align 1
@.str.110 = private unnamed_addr constant [21 x i8] c"!\22Invalid list type\22\00", align 1
@.str.111 = private unnamed_addr constant [22 x i8] c"libavformat/segment.c\00", align 1
@.str.112 = private unnamed_addr constant [5 x i8] c"\22,\0A\0D\00", align 1

; Function Attrs: nounwind uwtable
define internal void @print_csv_escaped_str(ptr noundef %0, ptr noundef %1) #0 {
  %3 = alloca ptr, align 8
  %4 = alloca ptr, align 8
  %5 = alloca i32, align 4
  store ptr %0, ptr %3, align 8, !tbaa !151
  store ptr %1, ptr %4, align 8, !tbaa !63
  call void @llvm.lifetime.start.p0(i64 4, ptr %5) #12
  %6 = load ptr, ptr %4, align 8, !tbaa !63
  %7 = load ptr, ptr %4, align 8, !tbaa !63
  %8 = call i64 @strcspn(ptr noundef %7, ptr noundef @.str.112) #14
  %9 = getelementptr inbounds nuw i8, ptr %6, i64 %8
  %10 = load i8, ptr %9, align 1, !tbaa !179
  %11 = icmp ne i8 %10, 0
  %12 = xor i1 %11, true
  %13 = xor i1 %12, true
  %14 = zext i1 %13 to i32
  store i32 %14, ptr %5, align 4, !tbaa !36
  %15 = load i32, ptr %5, align 4, !tbaa !36
  %16 = icmp ne i32 %15, 0
  br i1 %16, label %17, label %19

17:                                               ; preds = %2
  %18 = load ptr, ptr %3, align 8, !tbaa !151
  call void @avio_w8(ptr noundef %18, i32 noundef 34)
  br label %19

19:                                               ; preds = %17, %2
  br label %20

20:                                               ; preds = %36, %19
  %21 = load ptr, ptr %4, align 8, !tbaa !63
  %22 = load i8, ptr %21, align 1, !tbaa !179
  %23 = icmp ne i8 %22, 0
  br i1 %23, label %24, label %39

24:                                               ; preds = %20
  %25 = load ptr, ptr %4, align 8, !tbaa !63
  %26 = load i8, ptr %25, align 1, !tbaa !179
  %27 = sext i8 %26 to i32
  %28 = icmp eq i32 %27, 34
  br i1 %28, label %29, label %31

29:                                               ; preds = %24
  %30 = load ptr, ptr %3, align 8, !tbaa !151
  call void @avio_w8(ptr noundef %30, i32 noundef 34)
  br label %31

31:                                               ; preds = %29, %24
  %32 = load ptr, ptr %3, align 8, !tbaa !151
  %33 = load ptr, ptr %4, align 8, !tbaa !63
  %34 = load i8, ptr %33, align 1, !tbaa !179
  %35 = sext i8 %34 to i32
  call void @avio_w8(ptr noundef %32, i32 noundef %35)
  br label %36

36:                                               ; preds = %31
  %37 = load ptr, ptr %4, align 8, !tbaa !63
  %38 = getelementptr inbounds nuw i8, ptr %37, i32 1
  store ptr %38, ptr %4, align 8, !tbaa !63
  br label %20, !llvm.loop !180

39:                                               ; preds = %20
  %40 = load i32, ptr %5, align 4, !tbaa !36
  %41 = icmp ne i32 %40, 0
  br i1 %41, label %42, label %44

42:                                               ; preds = %39
  %43 = load ptr, ptr %3, align 8, !tbaa !151
  call void @avio_w8(ptr noundef %43, i32 noundef 34)
  br label %44

44:                                               ; preds = %42, %39
  call void @llvm.lifetime.end.p0(i64 4, ptr %5) #12
  ret void
}

; Function Attrs: nounwind uwtable
define internal void @segment_list_print_entry(ptr noundef %0, i32 noundef %1, ptr noundef %2, ptr noundef %3) #0 {
  %5 = alloca ptr, align 8
  %6 = alloca i32, align 4
  %7 = alloca ptr, align 8
  %8 = alloca ptr, align 8
  %9 = alloca ptr, align 8
  %10 = alloca i32, align 4
  store ptr %0, ptr %5, align 8, !tbaa !151
  store i32 %1, ptr %6, align 4, !tbaa !36
  store ptr %2, ptr %7, align 8, !tbaa !131
  store ptr %3, ptr %8, align 8, !tbaa !178
  %11 = load i32, ptr %6, align 4, !tbaa !36
  switch i32 %11, label %62 [
    i32 0, label %12
    i32 1, label %18
    i32 3, label %18
    i32 2, label %31
    i32 4, label %44
  ]

12:                                               ; preds = %4
  %13 = load ptr, ptr %5, align 8, !tbaa !151
  %14 = load ptr, ptr %7, align 8, !tbaa !131
  %15 = getelementptr inbounds nuw %struct.SegmentListEntry, ptr %14, i32 0, i32 5
  %16 = load ptr, ptr %15, align 8, !tbaa !152
  %17 = call i32 (ptr, ptr, ...) @avio_printf(ptr noundef %13, ptr noundef @.str.104, ptr noundef %16)
  br label %65

18:                                               ; preds = %4, %4
  %19 = load ptr, ptr %5, align 8, !tbaa !151
  %20 = load ptr, ptr %7, align 8, !tbaa !131
  %21 = getelementptr inbounds nuw %struct.SegmentListEntry, ptr %20, i32 0, i32 5
  %22 = load ptr, ptr %21, align 8, !tbaa !152
  call void @print_csv_escaped_str(ptr noundef %19, ptr noundef %22)
  %23 = load ptr, ptr %5, align 8, !tbaa !151
  %24 = load ptr, ptr %7, align 8, !tbaa !131
  %25 = getelementptr inbounds nuw %struct.SegmentListEntry, ptr %24, i32 0, i32 1
  %26 = load double, ptr %25, align 8, !tbaa !176
  %27 = load ptr, ptr %7, align 8, !tbaa !131
  %28 = getelementptr inbounds nuw %struct.SegmentListEntry, ptr %27, i32 0, i32 2
  %29 = load double, ptr %28, align 8, !tbaa !175
  %30 = call i32 (ptr, ptr, ...) @avio_printf(ptr noundef %23, ptr noundef @.str.105, double noundef %26, double noundef %29)
  br label %65

31:                                               ; preds = %4
  %32 = load ptr, ptr %5, align 8, !tbaa !151
  %33 = load ptr, ptr %7, align 8, !tbaa !131
  %34 = getelementptr inbounds nuw %struct.SegmentListEntry, ptr %33, i32 0, i32 2
  %35 = load double, ptr %34, align 8, !tbaa !175
  %36 = load ptr, ptr %7, align 8, !tbaa !131
  %37 = getelementptr inbounds nuw %struct.SegmentListEntry, ptr %36, i32 0, i32 1
  %38 = load double, ptr %37, align 8, !tbaa !176
  %39 = fsub nsz double %35, %38
  %40 = load ptr, ptr %7, align 8, !tbaa !131
  %41 = getelementptr inbounds nuw %struct.SegmentListEntry, ptr %40, i32 0, i32 5
  %42 = load ptr, ptr %41, align 8, !tbaa !152
  %43 = call i32 (ptr, ptr, ...) @avio_printf(ptr noundef %32, ptr noundef @.str.106, double noundef %39, ptr noundef %42)
  br label %65

44:                                               ; preds = %4
  call void @llvm.lifetime.start.p0(i64 8, ptr %9) #12
  %45 = load ptr, ptr %7, align 8, !tbaa !131
  %46 = getelementptr inbounds nuw %struct.SegmentListEntry, ptr %45, i32 0, i32 5
  %47 = load ptr, ptr %46, align 8, !tbaa !152
  %48 = call i32 @av_escape(ptr noundef %9, ptr noundef %47, ptr noundef null, i32 noundef 0, i32 noundef 1)
  %49 = icmp slt i32 %48, 0
  br i1 %49, label %50, label %55

50:                                               ; preds = %44
  %51 = load ptr, ptr %8, align 8, !tbaa !178
  %52 = load ptr, ptr %7, align 8, !tbaa !131
  %53 = getelementptr inbounds nuw %struct.SegmentListEntry, ptr %52, i32 0, i32 5
  %54 = load ptr, ptr %53, align 8, !tbaa !152
  call void (ptr, i32, ptr, ...) @av_log(ptr noundef %51, i32 noundef 24, ptr noundef @.str.107, ptr noundef %54)
  store i32 1, ptr %10, align 4
  br label %60

55:                                               ; preds = %44
  %56 = load ptr, ptr %5, align 8, !tbaa !151
  %57 = load ptr, ptr %9, align 8, !tbaa !63
  %58 = call i32 (ptr, ptr, ...) @avio_printf(ptr noundef %56, ptr noundef @.str.108, ptr noundef %57)
  %59 = load ptr, ptr %9, align 8, !tbaa !63
  call void @av_free(ptr noundef %59)
  store i32 2, ptr %10, align 4
  br label %60

60:                                               ; preds = %55, %50
  call void @llvm.lifetime.end.p0(i64 8, ptr %9) #12
  %61 = load i32, ptr %10, align 4
  switch i32 %61, label %66 [
    i32 1, label %65
    i32 2, label %65
  ]

62:                                               ; preds = %4
  br label %63

63:                                               ; preds = %62
  call void (ptr, i32, ptr, ...) @av_log(ptr noundef null, i32 noundef 0, ptr noundef @.str.109, ptr noundef @.str.110, ptr noundef @.str.111, i32 noundef 343)
  call void @abort() #15
  unreachable

64:                                               ; No predecessors!
  br label %65

65:                                               ; preds = %60, %64, %60, %31, %18, %12
  ret void

66:                                               ; preds = %60
  unreachable
}