; Function Attrs: nounwind uwtable
define internal fastcc void @segment_list_print_entry(ptr noundef %0, i32 noundef %1, ptr noundef readonly captures(none) %2, ptr noundef %3) unnamed_addr #0 {
  %5 = alloca ptr, align 8
  switch i32 %1, label %52 [
    i32 0, label %6
    i32 1, label %10
    i32 3, label %10
    i32 2, label %31
    i32 4, label %40
  ]

6:                                                ; preds = %4
  %7 = getelementptr inbounds nuw i8, ptr %2, i64 40
  %8 = load ptr, ptr %7, align 8, !tbaa !154
  %9 = tail call i32 (ptr, ptr, ...) @avio_printf(ptr noundef %0, ptr noundef nonnull @.str.104, ptr noundef %8) #13
  br label %53

10:                                               ; preds = %4, %4
  %11 = getelementptr inbounds nuw i8, ptr %2, i64 40
  %12 = load ptr, ptr %11, align 8, !tbaa !154
  %13 = tail call i64 @strcspn(ptr noundef readonly %12, ptr noundef nonnull @.str.112) #15
  %14 = getelementptr inbounds nuw i8, ptr %12, i64 %13
  %15 = load i8, ptr %14, align 1, !tbaa !109
  %.not.i = icmp eq i8 %15, 0
  br i1 %.not.i, label %.preheader, label %16

16:                                               ; preds = %10
  tail call void @avio_w8(ptr noundef %0, i32 noundef 34) #13
  br label %.preheader

.preheader:                                       ; preds = %16, %10
  br label %17

17:                                               ; preds = %.preheader, %20
  %.0.i = phi ptr [ %23, %20 ], [ %12, %.preheader ]
  %18 = load i8, ptr %.0.i, align 1, !tbaa !109
  switch i8 %18, label %20 [
    i8 0, label %24
    i8 34, label %19
  ]

19:                                               ; preds = %17
  tail call void @avio_w8(ptr noundef %0, i32 noundef 34) #13
  %.pre.i = load i8, ptr %.0.i, align 1, !tbaa !109
  br label %20

20:                                               ; preds = %19, %17
  %21 = phi i8 [ %18, %17 ], [ %.pre.i, %19 ]
  %22 = sext i8 %21 to i32
  tail call void @avio_w8(ptr noundef %0, i32 noundef %22) #13
  %23 = getelementptr inbounds nuw i8, ptr %.0.i, i64 1
  br label %17, !llvm.loop !172

24:                                               ; preds = %17
  br i1 %.not.i, label %print_csv_escaped_str.exit, label %25

25:                                               ; preds = %24
  tail call void @avio_w8(ptr noundef %0, i32 noundef 34) #13
  br label %print_csv_escaped_str.exit

print_csv_escaped_str.exit:                       ; preds = %24, %25
  %26 = getelementptr inbounds nuw i8, ptr %2, i64 8
  %27 = load double, ptr %26, align 8, !tbaa !170
  %28 = getelementptr inbounds nuw i8, ptr %2, i64 16
  %29 = load double, ptr %28, align 8, !tbaa !169
  %30 = tail call i32 (ptr, ptr, ...) @avio_printf(ptr noundef %0, ptr noundef nonnull @.str.105, double noundef %27, double noundef %29) #13
  br label %53

31:                                               ; preds = %4
  %32 = getelementptr inbounds nuw i8, ptr %2, i64 16
  %33 = load double, ptr %32, align 8, !tbaa !169
  %34 = getelementptr inbounds nuw i8, ptr %2, i64 8
  %35 = load double, ptr %34, align 8, !tbaa !170
  %36 = fsub nsz double %33, %35
  %37 = getelementptr inbounds nuw i8, ptr %2, i64 40
  %38 = load ptr, ptr %37, align 8, !tbaa !154
  %39 = tail call i32 (ptr, ptr, ...) @avio_printf(ptr noundef %0, ptr noundef nonnull @.str.106, double noundef %36, ptr noundef %38) #13
  br label %53

40:                                               ; preds = %4
  call void @llvm.lifetime.start.p0(i64 8, ptr nonnull %5) #13
  %41 = getelementptr inbounds nuw i8, ptr %2, i64 40
  %42 = load ptr, ptr %41, align 8, !tbaa !154
  %43 = call i32 @av_escape(ptr noundef nonnull %5, ptr noundef %42, ptr noundef null, i32 noundef 0, i32 noundef 1) #13
  %44 = icmp slt i32 %43, 0
  br i1 %44, label %45, label %47

45:                                               ; preds = %40
  %46 = load ptr, ptr %41, align 8, !tbaa !154
  call void (ptr, i32, ptr, ...) @av_log(ptr noundef %3, i32 noundef 24, ptr noundef nonnull @.str.107, ptr noundef %46) #13
  br label %51

47:                                               ; preds = %40
  %48 = load ptr, ptr %5, align 8, !tbaa !108
  %49 = call i32 (ptr, ptr, ...) @avio_printf(ptr noundef %0, ptr noundef nonnull @.str.108, ptr noundef %48) #13
  %50 = load ptr, ptr %5, align 8, !tbaa !108
  call void @av_free(ptr noundef %50) #13
  br label %51

51:                                               ; preds = %47, %45
  call void @llvm.lifetime.end.p0(i64 8, ptr nonnull %5) #13
  br label %53

52:                                               ; preds = %4
  tail call void (ptr, i32, ptr, ...) @av_log(ptr noundef null, i32 noundef 0, ptr noundef nonnull @.str.109, ptr noundef nonnull @.str.110, ptr noundef nonnull @.str.111, i32 noundef 343) #13
  tail call void @abort() #16
  unreachable

53:                                               ; preds = %51, %31, %print_csv_escaped_str.exit, %6
  ret void
}